; ModuleID = '56/1805.c'
source_filename = "56/1805.c"
target datalayout = "e-m:e-p270:32:32-p271:32:32-p272:64:64-i64:64-f80:128-n8:16:32:64-S128"
target triple = "x86_64-pc-linux-gnu"

@.str = private unnamed_addr constant [3 x i8] c"%d\00", align 1

; Function Attrs: noinline nounwind uwtable
define dso_local void @main() #0 {
  %1 = alloca i32, align 4
  %2 = alloca i32, align 4
  %3 = alloca i32, align 4
  %4 = alloca i32, align 4
  store i32 10, i32* %4, align 4
  %5 = call i32 (i8*, ...) @__isoc99_scanf(i8* getelementptr inbounds ([3 x i8], [3 x i8]* @.str, i64 0, i64 0), i32* %1)
  br label %6

6:                                                ; preds = %29, %0
  %7 = load i32, i32* %3, align 4
  %8 = icmp ne i32 %7, 0
  br i1 %8, label %9, label %30

9:                                                ; preds = %6
  %10 = load i32, i32* %4, align 4
  %11 = sdiv i32 %10, 10
  store i32 %11, i32* %2, align 4
  %12 = load i32, i32* %1, align 4
  %13 = load i32, i32* %4, align 4
  %14 = srem i32 %12, %13
  %15 = load i32, i32* %1, align 4
  %16 = load i32, i32* %2, align 4
  %17 = srem i32 %15, %16
  %18 = sub nsw i32 %14, %17
  %19 = load i32, i32* %2, align 4
  %20 = sdiv i32 %18, %19
  store i32 %20, i32* %3, align 4
  %21 = load i32, i32* %4, align 4
  %22 = mul nsw i32 %21, 10
  store i32 %22, i32* %4, align 4
  %23 = load i32, i32* %3, align 4
  %24 = icmp ne i32 %23, 0
  br i1 %24, label %25, label %28

25:                                               ; preds = %9
  %26 = load i32, i32* %3, align 4
  %27 = call i32 (i8*, ...) @printf(i8* getelementptr inbounds ([3 x i8], [3 x i8]* @.str, i64 0, i64 0), i32 %26)
  br label %29

28:                                               ; preds = %9
  br label %30

29:                                               ; preds = %25
  br label %6

30:                                               ; preds = %28, %6
  ret void
}

declare dso_local i32 @__isoc99_scanf(i8*, ...) #1

declare dso_local i32 @printf(i8*, ...) #1


!llvm.module.flags = !{!0}
!llvm.ident = !{!1}

!0 = !{i32 1, !"wchar_size", i32 4}
!1 = !{!"clang version 10.0.0-4ubuntu1 "}
